(dp0
S'zsource'
p1
F1088.6464513003543
sS's'
p2
F0.2
sS'chi0'
p3
cnumpy.core.multiarray
scalar
p4
(cnumpy
dtype
p5
(S'f8'
p6
I0
I1
tp7
Rp8
(I3
S'<'
p9
NNNI-1
I-1
I0
tp10
bS'\xa9e#\rf\x84\x98@'
p11
tp12
Rp13
sS'ext'
p14
S'lsstall_cmblens'
p15
sS'LSST'
p16
I01
sS'chimax'
p17
cnumpy.core.multiarray
_reconstruct
p18
(cnumpy
ndarray
p19
(I0
tp20
S'b'
p21
tp22
Rp23
(I1
(tg8
I00
S'?\x8c\xda\x89Lc\xc2@'
p24
tp25
bsS'chisource'
p26
g23
sS'bin_num'
p27
S'all'
p28
sS'sigma_chi'
p29
g4
(g8
S'\x912\xd5/\xc5\x03\x85@'
p30
tp31
Rp32
s.