(dp0
S'zsource'
p1
F6.0
sS'chi0'
p2
cnumpy.core.multiarray
scalar
p3
(cnumpy
dtype
p4
(S'f8'
p5
I0
I1
tp6
Rp7
(I3
S'<'
p8
NNNI-1
I-1
I0
tp9
bS'\xa9e#\rf\x84\x98@'
p10
tp11
Rp12
sS'ext'
p13
S'lsst0_deltalens_z60'
p14
sS'LSST'
p15
I01
sS'chimax'
p16
cnumpy.core.multiarray
_reconstruct
p17
(cnumpy
ndarray
p18
(I0
tp19
S'b'
p20
tp21
Rp22
(I1
(tg7
I00
S'n\x859Q\x17P\xb6@'
p23
tp24
bsS'chisource'
p25
g22
sS'bin_num'
p26
I0
sS'sigma_chi'
p27
g3
(g7
S'\x912\xd5/\xc5\x03\x85@'
p28
tp29
Rp30
s.