(dp0
S'zsource'
p1
F2.0
sS'chi0'
p2
cnumpy.core.multiarray
scalar
p3
(cnumpy
dtype
p4
(S'f8'
p5
I0
I1
tp6
Rp7
(I3
S'<'
p8
NNNI-1
I-1
I0
tp9
bS'\xa9e#\rf\x84\x98@'
p10
tp11
Rp12
sS'ext'
p13
S'lsstall_deltalens_z20'
p14
sS'LSST'
p15
I01
sS'chimax'
p16
cnumpy.core.multiarray
_reconstruct
p17
(cnumpy
ndarray
p18
(I0
tp19
S'b'
p20
tp21
Rp22
(I1
(tg7
I00
S'\xa8}E\xea/\x0b\xb5@'
p23
tp24
bsS'chisource'
p25
g17
(g18
(I0
tp26
g20
tp27
Rp28
(I1
(tg7
I00
S'\xf7:\x02\xe9\\\x1a\xac@'
p29
tp30
bsS'bin_num'
p31
S'all'
p32
sS'sigma_chi'
p33
g3
(g7
S'\x912\xd5/\xc5\x03\x85@'
p34
tp35
Rp36
s.