(dp0
S'zsource'
p1
F1.0
sS's'
p2
F0.6
sS'chi0'
p3
cnumpy.core.multiarray
scalar
p4
(cnumpy
dtype
p5
(S'f8'
p6
I0
I1
tp7
Rp8
(I3
S'<'
p9
NNNI-1
I-1
I0
tp10
bS'\xa9e#\rf\x84\x98@'
p11
tp12
Rp13
sS'ext'
p14
S'lsst2_deltalens_z10'
p15
sS'LSST'
p16
I01
sS'chimax'
p17
cnumpy.core.multiarray
_reconstruct
p18
(cnumpy
ndarray
p19
(I0
tp20
S'b'
p21
tp22
Rp23
(I1
(tg8
I00
S'\xf7:\x02\xe9\\\x1a\xac@'
p24
tp25
bsS'chisource'
p26
g18
(g19
(I0
tp27
g21
tp28
Rp29
(I1
(tg8
I00
S'\xf4\x9ft\xee\x05\xf8\xa1@'
p30
tp31
bsS'bin_num'
p32
I2
sS'sigma_chi'
p33
g4
(g8
S'\x912\xd5/\xc5\x03\x85@'
p34
tp35
Rp36
s.